; Function Attrs: mustprogress uwtable
define void @_ZN5Ipopt14CompoundVector15SetCompNonConstEiRNS_6VectorE(ptr noundef nonnull align 8 dereferenceable(265) %0, i32 noundef %1, ptr noundef nonnull align 8 dereferenceable(205) %2) local_unnamed_addr #0 align 2 {
  %4 = getelementptr inbounds nuw i8, ptr %0, i64 208
  %5 = sext i32 %1 to i64
  %6 = load ptr, ptr %4, align 8, !tbaa !45
  %7 = getelementptr inbounds nuw %"class.Ipopt::SmartPtr.15", ptr %6, i64 %5
  %8 = getelementptr inbounds nuw i8, ptr %2, i64 8
  %9 = load i32, ptr %8, align 8, !tbaa !3
  %10 = add nsw i32 %9, 1
  store i32 %10, ptr %8, align 8, !tbaa !3
  %11 = load ptr, ptr %7, align 8, !tbaa !48
  %.not.i.i.i = icmp eq ptr %11, null
  br i1 %.not.i.i.i, label %_ZN5Ipopt8SmartPtrINS_6VectorEEaSEPS1_.exit, label %12

12:                                               ; preds = %3
  %13 = getelementptr inbounds nuw i8, ptr %11, i64 8
  %14 = load i32, ptr %13, align 8, !tbaa !3
  %15 = add nsw i32 %14, -1
  store i32 %15, ptr %13, align 8, !tbaa !3
  %16 = icmp eq i32 %15, 0
  br i1 %16, label %17, label %_ZN5Ipopt8SmartPtrINS_6VectorEEaSEPS1_.exit

17:                                               ; preds = %12
  %18 = load ptr, ptr %11, align 8, !tbaa !8
  %19 = getelementptr inbounds nuw i8, ptr %18, i64 8
  %20 = load ptr, ptr %19, align 8
  tail call void %20(ptr noundef nonnull align 8 dereferenceable(205) %11) #23
  br label %_ZN5Ipopt8SmartPtrINS_6VectorEEaSEPS1_.exit

_ZN5Ipopt8SmartPtrINS_6VectorEEaSEPS1_.exit:      ; preds = %3, %12, %17
  store ptr %2, ptr %7, align 8, !tbaa !48
  %21 = getelementptr inbounds nuw i8, ptr %0, i64 232
  %22 = load ptr, ptr %21, align 8, !tbaa !53
  %23 = getelementptr inbounds nuw %"class.Ipopt::SmartPtr.16", ptr %22, i64 %5
  %24 = load ptr, ptr %23, align 8, !tbaa !56
  %.not.i.i.i3 = icmp eq ptr %24, null
  br i1 %.not.i.i.i3, label %_ZN5Ipopt8SmartPtrIKNS_6VectorEEaSEPS2_.exit, label %25

25:                                               ; preds = %_ZN5Ipopt8SmartPtrINS_6VectorEEaSEPS1_.exit
  %26 = getelementptr inbounds nuw i8, ptr %24, i64 8
  %27 = load i32, ptr %26, align 8, !tbaa !3
  %28 = add nsw i32 %27, -1
  store i32 %28, ptr %26, align 8, !tbaa !3
  %29 = icmp eq i32 %28, 0
  br i1 %29, label %30, label %_ZN5Ipopt8SmartPtrIKNS_6VectorEEaSEPS2_.exit

30:                                               ; preds = %25
  %31 = load ptr, ptr %24, align 8, !tbaa !8
  %32 = getelementptr inbounds nuw i8, ptr %31, i64 8
  %33 = load ptr, ptr %32, align 8
  tail call void %33(ptr noundef nonnull align 8 dereferenceable(205) %24) #23
  br label %_ZN5Ipopt8SmartPtrIKNS_6VectorEEaSEPS2_.exit

_ZN5Ipopt8SmartPtrIKNS_6VectorEEaSEPS2_.exit:     ; preds = %_ZN5Ipopt8SmartPtrINS_6VectorEEaSEPS1_.exit, %25, %30
  store ptr null, ptr %23, align 8, !tbaa !56
  %34 = getelementptr inbounds nuw i8, ptr %0, i64 256
  %35 = load ptr, ptr %34, align 8, !tbaa !60
  %36 = getelementptr inbounds nuw i8, ptr %35, i64 16
  %37 = load i32, ptr %36, align 8, !tbaa !37
  %38 = icmp slt i32 %37, 1
  br i1 %38, label %_ZN5Ipopt14CompoundVector12VectorsValidEv.exit, label %.lr.ph.i

.lr.ph.i:                                         ; preds = %_ZN5Ipopt8SmartPtrIKNS_6VectorEEaSEPS2_.exit
  %39 = load ptr, ptr %4, align 8, !tbaa !45
  %40 = load ptr, ptr %21, align 8
  %wide.trip.count.i = zext nneg i32 %37 to i64
  br label %41

41:                                               ; preds = %49, %.lr.ph.i
  %indvars.iv.i = phi i64 [ 0, %.lr.ph.i ], [ %indvars.iv.next.i, %49 ]
  %42 = getelementptr inbounds nuw %"class.Ipopt::SmartPtr.15", ptr %39, i64 %indvars.iv.i
  %43 = load ptr, ptr %42, align 8, !tbaa !48
  %44 = icmp eq ptr %43, null
  br i1 %44, label %45, label %49

45:                                               ; preds = %41
  %46 = getelementptr inbounds nuw %"class.Ipopt::SmartPtr.16", ptr %40, i64 %indvars.iv.i
  %47 = load ptr, ptr %46, align 8, !tbaa !56
  %48 = icmp eq ptr %47, null
  br i1 %48, label %_ZN5Ipopt14CompoundVector12VectorsValidEv.exit, label %49

49:                                               ; preds = %45, %41
  %indvars.iv.next.i = add nuw nsw i64 %indvars.iv.i, 1
  %exitcond.not.i = icmp eq i64 %indvars.iv.next.i, %wide.trip.count.i
  br i1 %exitcond.not.i, label %_ZN5Ipopt14CompoundVector12VectorsValidEv.exit, label %41, !llvm.loop !76

_ZN5Ipopt14CompoundVector12VectorsValidEv.exit:   ; preds = %45, %49, %_ZN5Ipopt8SmartPtrIKNS_6VectorEEaSEPS2_.exit
  %.lcssa.i = phi i8 [ 1, %_ZN5Ipopt8SmartPtrIKNS_6VectorEEaSEPS2_.exit ], [ 1, %49 ], [ 0, %45 ]
  %50 = getelementptr inbounds nuw i8, ptr %0, i64 264
  store i8 %.lcssa.i, ptr %50, align 8, !tbaa !69
  tail call void @_ZN5Ipopt12TaggedObject13ObjectChangedEv(ptr noundef nonnull align 8 dereferenceable(56) %0)
  ret void
}